target datalayout = "e-m:e-p270:32:32-p271:32:32-p272:64:64-i64:64-i128:128-f80:128-n8:16:32:64-S128"
target triple = "x86_64-pc-linux-gnu"

%struct.ScanKeyData = type { i32, i16, i16, i32, i32, %struct.FmgrInfo, i64 }
%struct.FmgrInfo = type { ptr, i32, i16, i8, i8, i8, ptr, ptr, ptr }

; Function Attrs: inlinehint nounwind uwtable
define internal i64 @PointerGetDatum(ptr noundef %0) #3 {
  %2 = alloca ptr, align 8
  store ptr %0, ptr %2, align 8
  %3 = load ptr, ptr %2, align 8
  %4 = ptrtoint ptr %3 to i64
  ret i64 %4
}

; Function Attrs: inlinehint nounwind uwtable
define internal i64 @ObjectIdGetDatum(i32 noundef %0) #3 {
  %2 = alloca i32, align 4
  store i32 %0, ptr %2, align 4
  %3 = load i32, ptr %2, align 4
  %4 = zext i32 %3 to i64
  ret i64 %4
}

; Function Attrs: inlinehint nounwind uwtable
define internal i64 @CStringGetDatum(ptr noundef %0) #3 {
  %2 = alloca ptr, align 8
  store ptr %0, ptr %2, align 8
  %3 = load ptr, ptr %2, align 8
  %4 = call i64 @PointerGetDatum(ptr noundef %3)
  ret i64 %4
}

; Function Attrs: nounwind uwtable
define dso_local zeroext i1 @ConstraintNameExists(ptr noundef %0, i32 noundef %1) #0 {
  %3 = alloca ptr, align 8
  %4 = alloca i32, align 4
  %5 = alloca i8, align 1
  %6 = alloca ptr, align 8
  %7 = alloca ptr, align 8
  %8 = alloca [2 x %struct.ScanKeyData], align 16
  store ptr %0, ptr %3, align 8
  store i32 %1, ptr %4, align 4
  call void @llvm.lifetime.start.p0(i64 1, ptr %5) #9
  call void @llvm.lifetime.start.p0(i64 8, ptr %6) #9
  call void @llvm.lifetime.start.p0(i64 8, ptr %7) #9
  call void @llvm.lifetime.start.p0(i64 144, ptr %8) #9
  %9 = call ptr @table_open(i32 noundef 2606, i32 noundef 1)
  store ptr %9, ptr %6, align 8
  %10 = getelementptr inbounds [2 x %struct.ScanKeyData], ptr %8, i64 0, i64 0
  %11 = load ptr, ptr %3, align 8
  %12 = call i64 @CStringGetDatum(ptr noundef %11)
  call void @ScanKeyInit(ptr noundef %10, i16 noundef signext 2, i16 noundef zeroext 3, i32 noundef 62, i64 noundef %12)
  %13 = getelementptr inbounds [2 x %struct.ScanKeyData], ptr %8, i64 0, i64 1
  %14 = load i32, ptr %4, align 4
  %15 = call i64 @ObjectIdGetDatum(i32 noundef %14)
  call void @ScanKeyInit(ptr noundef %13, i16 noundef signext 3, i16 noundef zeroext 3, i32 noundef 184, i64 noundef %15)
  %16 = load ptr, ptr %6, align 8
  %17 = getelementptr inbounds [2 x %struct.ScanKeyData], ptr %8, i64 0, i64 0
  %18 = call ptr @systable_beginscan(ptr noundef %16, i32 noundef 2664, i1 noundef zeroext true, ptr noundef null, i32 noundef 2, ptr noundef %17)
  store ptr %18, ptr %7, align 8
  %19 = load ptr, ptr %7, align 8
  %20 = call ptr @systable_getnext(ptr noundef %19)
  %21 = icmp ne ptr %20, null
  %22 = zext i1 %21 to i8
  store i8 %22, ptr %5, align 1
  %23 = load ptr, ptr %7, align 8
  call void @systable_endscan(ptr noundef %23)
  %24 = load ptr, ptr %6, align 8
  call void @table_close(ptr noundef %24, i32 noundef 1)
  %25 = load i8, ptr %5, align 1, !range !13, !noundef !14
  %26 = trunc i8 %25 to i1
  call void @llvm.lifetime.end.p0(i64 144, ptr %8) #9
  call void @llvm.lifetime.end.p0(i64 8, ptr %7) #9
  call void @llvm.lifetime.end.p0(i64 8, ptr %6) #9
  call void @llvm.lifetime.end.p0(i64 1, ptr %5) #9
  ret i1 %26
}