; Function Attrs: nounwind uwtable
define dso_local zeroext i1 @ConstraintNameExists(ptr noundef %0, i32 noundef %1) local_unnamed_addr #0 {
  %3 = alloca [2 x %struct.ScanKeyData], align 16
  call void @llvm.lifetime.start.p0(i64 144, ptr nonnull %3) #12
  %4 = tail call ptr @table_open(i32 noundef 2606, i32 noundef 1) #12
  %5 = ptrtoint ptr %0 to i64
  call void @ScanKeyInit(ptr noundef nonnull %3, i16 noundef signext 2, i16 noundef zeroext 3, i32 noundef 62, i64 noundef %5) #12
  %6 = getelementptr inbounds nuw i8, ptr %3, i64 72
  %7 = zext i32 %1 to i64
  call void @ScanKeyInit(ptr noundef nonnull %6, i16 noundef signext 3, i16 noundef zeroext 3, i32 noundef 184, i64 noundef %7) #12
  %8 = call ptr @systable_beginscan(ptr noundef %4, i32 noundef 2664, i1 noundef zeroext true, ptr noundef null, i32 noundef 2, ptr noundef nonnull %3) #12
  %9 = call ptr @systable_getnext(ptr noundef %8) #12
  %10 = icmp ne ptr %9, null
  call void @systable_endscan(ptr noundef %8) #12
  call void @table_close(ptr noundef %4, i32 noundef 1) #12
  call void @llvm.lifetime.end.p0(i64 144, ptr nonnull %3) #12
  ret i1 %10
}